; Function Attrs: mustprogress nofree norecurse nosync nounwind willreturn memory(argmem: read) uwtable
define { i64, ptr } @_ZNK5arrow22FixedSizeBinaryBuilder7GetViewEl(ptr nocapture noundef nonnull readonly align 8 dereferenceable(208) %this, i64 noundef %i) local_unnamed_addr #5 align 2 {
entry:
  %data_.i = getelementptr inbounds i8, ptr %this, i64 176
  %0 = load ptr, ptr %data_.i, align 8
  %byte_width_ = getelementptr inbounds i8, ptr %this, i64 144
  %1 = load i32, ptr %byte_width_, align 8
  %conv = sext i32 %1 to i64
  %mul = mul nsw i64 %conv, %i
  %add.ptr = getelementptr inbounds i8, ptr %0, i64 %mul
  %.fca.0.insert = insertvalue { i64, ptr } poison, i64 %conv, 0
  %.fca.1.insert = insertvalue { i64, ptr } %.fca.0.insert, ptr %add.ptr, 1
  ret { i64, ptr } %.fca.1.insert
}